; Function Attrs: mustprogress uwtable
define hidden void @_ZN4smt27scanner12read_commentEv(ptr noundef nonnull align 8 dereferenceable(1408) %0) local_unnamed_addr #3 align 2 {
  tail call void @_ZN4smt27scanner4nextEv(ptr noundef nonnull align 8 dereferenceable(1408) %0)
  %2 = getelementptr inbounds nuw i8, ptr %0, i64 17
  %3 = load i8, ptr %2, align 1, !tbaa !25, !range !20, !noundef !21
  %4 = trunc nuw i8 %3 to i1
  br i1 %4, label %.loopexit, label %.lr.ph

.lr.ph:                                           ; preds = %1
  %5 = getelementptr inbounds nuw i8, ptr %0, i64 16
  br label %6

6:                                                ; preds = %.lr.ph, %14
  %7 = load i8, ptr %5, align 8, !tbaa !28
  %8 = icmp eq i8 %7, 10
  br i1 %8, label %9, label %14

9:                                                ; preds = %6
  %10 = getelementptr inbounds nuw i8, ptr %0, i64 20
  %11 = load i32, ptr %10, align 4, !tbaa !58
  %12 = add nsw i32 %11, 1
  store i32 %12, ptr %10, align 4, !tbaa !58
  %13 = getelementptr inbounds nuw i8, ptr %0, i64 12
  store i32 0, ptr %13, align 4, !tbaa !45
  tail call void @_ZN4smt27scanner4nextEv(ptr noundef nonnull align 8 dereferenceable(1408) %0)
  br label %.loopexit

14:                                               ; preds = %6
  tail call void @_ZN4smt27scanner4nextEv(ptr noundef nonnull align 8 dereferenceable(1408) %0)
  %15 = load i8, ptr %2, align 1, !tbaa !25, !range !20, !noundef !21
  %16 = trunc nuw i8 %15 to i1
  br i1 %16, label %.loopexit, label %6

.loopexit:                                        ; preds = %14, %1, %9
  ret void
}